; Function Attrs: mustprogress noreturn uwtable
define internal void @"_ZNSt17_Function_handlerIFvvEZ4mainE3$_1E9_M_invokeERKSt9_Any_data"(ptr nocapture nonnull readnone align 8 %__functor) #25 align 2 personality ptr @__gxx_personality_v0 {
entry:
  %call.i.i.i = tail call noundef nonnull align 8 dereferenceable(8) ptr @_ZStlsISt11char_traitsIcEERSt13basic_ostreamIcT_ES5_PKc(ptr noundef nonnull align 8 dereferenceable(8) @_ZSt4cout, ptr noundef nonnull @.str.58)
  %exception.i.i.i = tail call ptr @__cxa_allocate_exception(i64 16) #29
  invoke void @_ZNSt13runtime_errorC1EPKc(ptr noundef nonnull align 8 dereferenceable(16) %exception.i.i.i, ptr noundef nonnull @.str.59)
          to label %invoke.cont.i.i.i unwind label %lpad.i.i.i

invoke.cont.i.i.i:                                ; preds = %entry
  tail call void @__cxa_throw(ptr nonnull %exception.i.i.i, ptr nonnull @_ZTISt13runtime_error, ptr nonnull @_ZNSt13runtime_errorD1Ev) #34
  unreachable

lpad.i.i.i:                                       ; preds = %entry
  %0 = landingpad { ptr, i32 }
          cleanup
  tail call void @__cxa_free_exception(ptr %exception.i.i.i) #29
  resume { ptr, i32 } %0
}